target datalayout = "e-m:e-p270:32:32-p271:32:32-p272:64:64-i64:64-i128:128-f80:128-n8:16:32:64-S128"
target triple = "x86_64-pc-linux-gnu"

; Function Attrs: nounwind uwtable
define internal i32 @arkode_butcher_dot(ptr noundef %0, ptr noundef %1, i32 noundef %2, ptr noundef %3) #0 {
  %5 = alloca i32, align 4
  %6 = alloca ptr, align 8
  %7 = alloca ptr, align 8
  %8 = alloca i32, align 4
  %9 = alloca ptr, align 8
  %10 = alloca i32, align 4
  %11 = alloca i32, align 4
  store ptr %0, ptr %6, align 8, !tbaa !18
  store ptr %1, ptr %7, align 8, !tbaa !18
  store i32 %2, ptr %8, align 4, !tbaa !3
  store ptr %3, ptr %9, align 8, !tbaa !18
  call void @llvm.lifetime.start.p0(i64 4, ptr %10) #7
  %12 = load ptr, ptr %6, align 8, !tbaa !18
  %13 = icmp eq ptr %12, null
  br i1 %13, label %23, label %14

14:                                               ; preds = %4
  %15 = load ptr, ptr %7, align 8, !tbaa !18
  %16 = icmp eq ptr %15, null
  br i1 %16, label %23, label %17

17:                                               ; preds = %14
  %18 = load ptr, ptr %9, align 8, !tbaa !18
  %19 = icmp eq ptr %18, null
  br i1 %19, label %23, label %20

20:                                               ; preds = %17
  %21 = load i32, ptr %8, align 4, !tbaa !3
  %22 = icmp slt i32 %21, 1
  br i1 %22, label %23, label %24

23:                                               ; preds = %20, %17, %14, %4
  store i32 1, ptr %5, align 4
  store i32 1, ptr %11, align 4
  br label %48

24:                                               ; preds = %20
  %25 = load ptr, ptr %9, align 8, !tbaa !18
  store double 0.000000e+00, ptr %25, align 8, !tbaa !21
  store i32 0, ptr %10, align 4, !tbaa !3
  br label %26

26:                                               ; preds = %44, %24
  %27 = load i32, ptr %10, align 4, !tbaa !3
  %28 = load i32, ptr %8, align 4, !tbaa !3
  %29 = icmp slt i32 %27, %28
  br i1 %29, label %30, label %47

30:                                               ; preds = %26
  %31 = load ptr, ptr %6, align 8, !tbaa !18
  %32 = load i32, ptr %10, align 4, !tbaa !3
  %33 = sext i32 %32 to i64
  %34 = getelementptr inbounds double, ptr %31, i64 %33
  %35 = load double, ptr %34, align 8, !tbaa !21
  %36 = load ptr, ptr %7, align 8, !tbaa !18
  %37 = load i32, ptr %10, align 4, !tbaa !3
  %38 = sext i32 %37 to i64
  %39 = getelementptr inbounds double, ptr %36, i64 %38
  %40 = load double, ptr %39, align 8, !tbaa !21
  %41 = load ptr, ptr %9, align 8, !tbaa !18
  %42 = load double, ptr %41, align 8, !tbaa !21
  %43 = call double @llvm.fmuladd.f64(double %35, double %40, double %42)
  store double %43, ptr %41, align 8, !tbaa !21
  br label %44

44:                                               ; preds = %30
  %45 = load i32, ptr %10, align 4, !tbaa !3
  %46 = add nsw i32 %45, 1
  store i32 %46, ptr %10, align 4, !tbaa !3
  br label %26

47:                                               ; preds = %26
  store i32 0, ptr %5, align 4
  store i32 1, ptr %11, align 4
  br label %48

48:                                               ; preds = %47, %23
  call void @llvm.lifetime.end.p0(i64 4, ptr %10) #7
  %49 = load i32, ptr %5, align 4
  ret i32 %49
}

; Function Attrs: nounwind uwtable
define internal i32 @arkode_butcher_mv(ptr noundef %0, ptr noundef %1, i32 noundef %2, ptr noundef %3) #0 {
  %5 = alloca i32, align 4
  %6 = alloca ptr, align 8
  %7 = alloca ptr, align 8
  %8 = alloca i32, align 4
  %9 = alloca ptr, align 8
  %10 = alloca i32, align 4
  %11 = alloca i32, align 4
  %12 = alloca i32, align 4
  store ptr %0, ptr %6, align 8, !tbaa !31
  store ptr %1, ptr %7, align 8, !tbaa !18
  store i32 %2, ptr %8, align 4, !tbaa !3
  store ptr %3, ptr %9, align 8, !tbaa !18
  call void @llvm.lifetime.start.p0(i64 4, ptr %10) #7
  call void @llvm.lifetime.start.p0(i64 4, ptr %11) #7
  %13 = load ptr, ptr %6, align 8, !tbaa !31
  %14 = icmp eq ptr %13, null
  br i1 %14, label %24, label %15

15:                                               ; preds = %4
  %16 = load ptr, ptr %7, align 8, !tbaa !18
  %17 = icmp eq ptr %16, null
  br i1 %17, label %24, label %18

18:                                               ; preds = %15
  %19 = load ptr, ptr %9, align 8, !tbaa !18
  %20 = icmp eq ptr %19, null
  br i1 %20, label %24, label %21

21:                                               ; preds = %18
  %22 = load i32, ptr %8, align 4, !tbaa !3
  %23 = icmp slt i32 %22, 1
  br i1 %23, label %24, label %25

24:                                               ; preds = %21, %18, %15, %4
  store i32 1, ptr %5, align 4
  store i32 1, ptr %12, align 4
  br label %77

25:                                               ; preds = %21
  store i32 0, ptr %10, align 4, !tbaa !3
  br label %26

26:                                               ; preds = %35, %25
  %27 = load i32, ptr %10, align 4, !tbaa !3
  %28 = load i32, ptr %8, align 4, !tbaa !3
  %29 = icmp slt i32 %27, %28
  br i1 %29, label %30, label %38

30:                                               ; preds = %26
  %31 = load ptr, ptr %9, align 8, !tbaa !18
  %32 = load i32, ptr %10, align 4, !tbaa !3
  %33 = sext i32 %32 to i64
  %34 = getelementptr inbounds double, ptr %31, i64 %33
  store double 0.000000e+00, ptr %34, align 8, !tbaa !21
  br label %35

35:                                               ; preds = %30
  %36 = load i32, ptr %10, align 4, !tbaa !3
  %37 = add nsw i32 %36, 1
  store i32 %37, ptr %10, align 4, !tbaa !3
  br label %26

38:                                               ; preds = %26
  store i32 0, ptr %10, align 4, !tbaa !3
  br label %39

39:                                               ; preds = %73, %38
  %40 = load i32, ptr %10, align 4, !tbaa !3
  %41 = load i32, ptr %8, align 4, !tbaa !3
  %42 = icmp slt i32 %40, %41
  br i1 %42, label %43, label %76

43:                                               ; preds = %39
  store i32 0, ptr %11, align 4, !tbaa !3
  br label %44

44:                                               ; preds = %69, %43
  %45 = load i32, ptr %11, align 4, !tbaa !3
  %46 = load i32, ptr %8, align 4, !tbaa !3
  %47 = icmp slt i32 %45, %46
  br i1 %47, label %48, label %72

48:                                               ; preds = %44
  %49 = load ptr, ptr %6, align 8, !tbaa !31
  %50 = load i32, ptr %10, align 4, !tbaa !3
  %51 = sext i32 %50 to i64
  %52 = getelementptr inbounds ptr, ptr %49, i64 %51
  %53 = load ptr, ptr %52, align 8, !tbaa !18
  %54 = load i32, ptr %11, align 4, !tbaa !3
  %55 = sext i32 %54 to i64
  %56 = getelementptr inbounds double, ptr %53, i64 %55
  %57 = load double, ptr %56, align 8, !tbaa !21
  %58 = load ptr, ptr %7, align 8, !tbaa !18
  %59 = load i32, ptr %11, align 4, !tbaa !3
  %60 = sext i32 %59 to i64
  %61 = getelementptr inbounds double, ptr %58, i64 %60
  %62 = load double, ptr %61, align 8, !tbaa !21
  %63 = load ptr, ptr %9, align 8, !tbaa !18
  %64 = load i32, ptr %10, align 4, !tbaa !3
  %65 = sext i32 %64 to i64
  %66 = getelementptr inbounds double, ptr %63, i64 %65
  %67 = load double, ptr %66, align 8, !tbaa !21
  %68 = call double @llvm.fmuladd.f64(double %57, double %62, double %67)
  store double %68, ptr %66, align 8, !tbaa !21
  br label %69

69:                                               ; preds = %48
  %70 = load i32, ptr %11, align 4, !tbaa !3
  %71 = add nsw i32 %70, 1
  store i32 %71, ptr %11, align 4, !tbaa !3
  br label %44

72:                                               ; preds = %44
  br label %73

73:                                               ; preds = %72
  %74 = load i32, ptr %10, align 4, !tbaa !3
  %75 = add nsw i32 %74, 1
  store i32 %75, ptr %10, align 4, !tbaa !3
  br label %39

76:                                               ; preds = %39
  store i32 0, ptr %5, align 4
  store i32 1, ptr %12, align 4
  br label %77

77:                                               ; preds = %76, %24
  call void @llvm.lifetime.end.p0(i64 4, ptr %11) #7
  call void @llvm.lifetime.end.p0(i64 4, ptr %10) #7
  %78 = load i32, ptr %5, align 4
  ret i32 %78
}

; Function Attrs: nounwind uwtable
define internal i32 @arkode_butcher_vv(ptr noundef %0, ptr noundef %1, i32 noundef %2, ptr noundef %3) #0 {
  %5 = alloca i32, align 4
  %6 = alloca ptr, align 8
  %7 = alloca ptr, align 8
  %8 = alloca i32, align 4
  %9 = alloca ptr, align 8
  %10 = alloca i32, align 4
  %11 = alloca i32, align 4
  store ptr %0, ptr %6, align 8, !tbaa !18
  store ptr %1, ptr %7, align 8, !tbaa !18
  store i32 %2, ptr %8, align 4, !tbaa !3
  store ptr %3, ptr %9, align 8, !tbaa !18
  call void @llvm.lifetime.start.p0(i64 4, ptr %10) #7
  %12 = load ptr, ptr %6, align 8, !tbaa !18
  %13 = icmp eq ptr %12, null
  br i1 %13, label %23, label %14

14:                                               ; preds = %4
  %15 = load ptr, ptr %7, align 8, !tbaa !18
  %16 = icmp eq ptr %15, null
  br i1 %16, label %23, label %17

17:                                               ; preds = %14
  %18 = load ptr, ptr %9, align 8, !tbaa !18
  %19 = icmp eq ptr %18, null
  br i1 %19, label %23, label %20

20:                                               ; preds = %17
  %21 = load i32, ptr %8, align 4, !tbaa !3
  %22 = icmp slt i32 %21, 1
  br i1 %22, label %23, label %24

23:                                               ; preds = %20, %17, %14, %4
  store i32 1, ptr %5, align 4
  store i32 1, ptr %11, align 4
  br label %49

24:                                               ; preds = %20
  store i32 0, ptr %10, align 4, !tbaa !3
  br label %25

25:                                               ; preds = %45, %24
  %26 = load i32, ptr %10, align 4, !tbaa !3
  %27 = load i32, ptr %8, align 4, !tbaa !3
  %28 = icmp slt i32 %26, %27
  br i1 %28, label %29, label %48

29:                                               ; preds = %25
  %30 = load ptr, ptr %6, align 8, !tbaa !18
  %31 = load i32, ptr %10, align 4, !tbaa !3
  %32 = sext i32 %31 to i64
  %33 = getelementptr inbounds double, ptr %30, i64 %32
  %34 = load double, ptr %33, align 8, !tbaa !21
  %35 = load ptr, ptr %7, align 8, !tbaa !18
  %36 = load i32, ptr %10, align 4, !tbaa !3
  %37 = sext i32 %36 to i64
  %38 = getelementptr inbounds double, ptr %35, i64 %37
  %39 = load double, ptr %38, align 8, !tbaa !21
  %40 = fmul double %34, %39
  %41 = load ptr, ptr %9, align 8, !tbaa !18
  %42 = load i32, ptr %10, align 4, !tbaa !3
  %43 = sext i32 %42 to i64
  %44 = getelementptr inbounds double, ptr %41, i64 %43
  store double %40, ptr %44, align 8, !tbaa !21
  br label %45

45:                                               ; preds = %29
  %46 = load i32, ptr %10, align 4, !tbaa !3
  %47 = add nsw i32 %46, 1
  store i32 %47, ptr %10, align 4, !tbaa !3
  br label %25

48:                                               ; preds = %25
  store i32 0, ptr %5, align 4
  store i32 1, ptr %11, align 4
  br label %49

49:                                               ; preds = %48, %23
  call void @llvm.lifetime.end.p0(i64 4, ptr %10) #7
  %50 = load i32, ptr %5, align 4
  ret i32 %50
}

; Function Attrs: nounwind uwtable
define internal i32 @arkode_butcher_order6d(ptr noundef %0, ptr noundef %1, ptr noundef %2, ptr noundef %3, ptr noundef %4, ptr noundef %5, i32 noundef %6) #0 {
  %8 = alloca i32, align 4
  %9 = alloca ptr, align 8
  %10 = alloca ptr, align 8
  %11 = alloca ptr, align 8
  %12 = alloca ptr, align 8
  %13 = alloca ptr, align 8
  %14 = alloca ptr, align 8
  %15 = alloca i32, align 4
  %16 = alloca double, align 8
  %17 = alloca ptr, align 8
  %18 = alloca ptr, align 8
  %19 = alloca ptr, align 8
  %20 = alloca i32, align 4
  store ptr %0, ptr %9, align 8, !tbaa !18
  store ptr %1, ptr %10, align 8, !tbaa !18
  store ptr %2, ptr %11, align 8, !tbaa !18
  store ptr %3, ptr %12, align 8, !tbaa !31
  store ptr %4, ptr %13, align 8, !tbaa !18
  store ptr %5, ptr %14, align 8, !tbaa !18
  store i32 %6, ptr %15, align 4, !tbaa !3
  call void @llvm.lifetime.start.p0(i64 8, ptr %16) #7
  call void @llvm.lifetime.start.p0(i64 8, ptr %17) #7
  %21 = load i32, ptr %15, align 4, !tbaa !3
  %22 = sext i32 %21 to i64
  %23 = call noalias ptr @calloc(i64 noundef %22, i64 noundef 8) #9
  store ptr %23, ptr %17, align 8, !tbaa !18
  call void @llvm.lifetime.start.p0(i64 8, ptr %18) #7
  %24 = load i32, ptr %15, align 4, !tbaa !3
  %25 = sext i32 %24 to i64
  %26 = call noalias ptr @calloc(i64 noundef %25, i64 noundef 8) #9
  store ptr %26, ptr %18, align 8, !tbaa !18
  call void @llvm.lifetime.start.p0(i64 8, ptr %19) #7
  %27 = load i32, ptr %15, align 4, !tbaa !3
  %28 = sext i32 %27 to i64
  %29 = call noalias ptr @calloc(i64 noundef %28, i64 noundef 8) #9
  store ptr %29, ptr %19, align 8, !tbaa !18
  %30 = load ptr, ptr %13, align 8, !tbaa !18
  %31 = load ptr, ptr %14, align 8, !tbaa !18
  %32 = load i32, ptr %15, align 4, !tbaa !3
  %33 = load ptr, ptr %17, align 8, !tbaa !18
  %34 = call i32 @arkode_butcher_vv(ptr noundef %30, ptr noundef %31, i32 noundef %32, ptr noundef %33)
  %35 = icmp ne i32 %34, 0
  br i1 %35, label %36, label %40

36:                                               ; preds = %7
  %37 = load ptr, ptr %17, align 8, !tbaa !18
  call void @free(ptr noundef %37) #7
  %38 = load ptr, ptr %18, align 8, !tbaa !18
  call void @free(ptr noundef %38) #7
  %39 = load ptr, ptr %19, align 8, !tbaa !18
  call void @free(ptr noundef %39) #7
  store i32 0, ptr %8, align 4
  store i32 1, ptr %20, align 4
  br label %90

40:                                               ; preds = %7
  %41 = load ptr, ptr %12, align 8, !tbaa !31
  %42 = load ptr, ptr %17, align 8, !tbaa !18
  %43 = load i32, ptr %15, align 4, !tbaa !3
  %44 = load ptr, ptr %18, align 8, !tbaa !18
  %45 = call i32 @arkode_butcher_mv(ptr noundef %41, ptr noundef %42, i32 noundef %43, ptr noundef %44)
  %46 = icmp ne i32 %45, 0
  br i1 %46, label %47, label %51

47:                                               ; preds = %40
  %48 = load ptr, ptr %17, align 8, !tbaa !18
  call void @free(ptr noundef %48) #7
  %49 = load ptr, ptr %18, align 8, !tbaa !18
  call void @free(ptr noundef %49) #7
  %50 = load ptr, ptr %19, align 8, !tbaa !18
  call void @free(ptr noundef %50) #7
  store i32 0, ptr %8, align 4
  store i32 1, ptr %20, align 4
  br label %90

51:                                               ; preds = %40
  %52 = load ptr, ptr %10, align 8, !tbaa !18
  %53 = load ptr, ptr %11, align 8, !tbaa !18
  %54 = load i32, ptr %15, align 4, !tbaa !3
  %55 = load ptr, ptr %17, align 8, !tbaa !18
  %56 = call i32 @arkode_butcher_vv(ptr noundef %52, ptr noundef %53, i32 noundef %54, ptr noundef %55)
  %57 = icmp ne i32 %56, 0
  br i1 %57, label %58, label %62

58:                                               ; preds = %51
  %59 = load ptr, ptr %17, align 8, !tbaa !18
  call void @free(ptr noundef %59) #7
  %60 = load ptr, ptr %18, align 8, !tbaa !18
  call void @free(ptr noundef %60) #7
  %61 = load ptr, ptr %19, align 8, !tbaa !18
  call void @free(ptr noundef %61) #7
  store i32 0, ptr %8, align 4
  store i32 1, ptr %20, align 4
  br label %90

62:                                               ; preds = %51
  %63 = load ptr, ptr %9, align 8, !tbaa !18
  %64 = load ptr, ptr %17, align 8, !tbaa !18
  %65 = load i32, ptr %15, align 4, !tbaa !3
  %66 = load ptr, ptr %19, align 8, !tbaa !18
  %67 = call i32 @arkode_butcher_vv(ptr noundef %63, ptr noundef %64, i32 noundef %65, ptr noundef %66)
  %68 = icmp ne i32 %67, 0
  br i1 %68, label %69, label %73

69:                                               ; preds = %62
  %70 = load ptr, ptr %17, align 8, !tbaa !18
  call void @free(ptr noundef %70) #7
  %71 = load ptr, ptr %18, align 8, !tbaa !18
  call void @free(ptr noundef %71) #7
  %72 = load ptr, ptr %19, align 8, !tbaa !18
  call void @free(ptr noundef %72) #7
  store i32 0, ptr %8, align 4
  store i32 1, ptr %20, align 4
  br label %90

73:                                               ; preds = %62
  %74 = load ptr, ptr %18, align 8, !tbaa !18
  %75 = load ptr, ptr %19, align 8, !tbaa !18
  %76 = load i32, ptr %15, align 4, !tbaa !3
  %77 = call i32 @arkode_butcher_dot(ptr noundef %74, ptr noundef %75, i32 noundef %76, ptr noundef %16)
  %78 = icmp ne i32 %77, 0
  br i1 %78, label %79, label %80

79:                                               ; preds = %73
  store i32 0, ptr %8, align 4
  store i32 1, ptr %20, align 4
  br label %90

80:                                               ; preds = %73
  %81 = load ptr, ptr %17, align 8, !tbaa !18
  call void @free(ptr noundef %81) #7
  %82 = load ptr, ptr %18, align 8, !tbaa !18
  call void @free(ptr noundef %82) #7
  %83 = load ptr, ptr %19, align 8, !tbaa !18
  call void @free(ptr noundef %83) #7
  %84 = load double, ptr %16, align 8, !tbaa !21
  %85 = fsub double %84, 0x3FAC71C71C71C71C
  %86 = call double @llvm.fabs.f64(double %85)
  %87 = call double @sqrt(double noundef 0x3CB0000000000000) #7, !tbaa !3
  %88 = fcmp ogt double %86, %87
  %89 = select i1 %88, i32 0, i32 1
  store i32 %89, ptr %8, align 4
  store i32 1, ptr %20, align 4
  br label %90

90:                                               ; preds = %80, %79, %69, %58, %47, %36
  call void @llvm.lifetime.end.p0(i64 8, ptr %19) #7
  call void @llvm.lifetime.end.p0(i64 8, ptr %18) #7
  call void @llvm.lifetime.end.p0(i64 8, ptr %17) #7
  call void @llvm.lifetime.end.p0(i64 8, ptr %16) #7
  %91 = load i32, ptr %8, align 4
  ret i32 %91
}