; Function Attrs: nounwind memory(readwrite, argmem: read) uwtable
define internal fastcc range(i32 0, 2) i32 @arkode_butcher_order6d(ptr noundef readonly captures(address_is_null) %0, ptr noundef readonly captures(address_is_null) %1, ptr noundef readonly captures(address_is_null) %2, ptr noundef readonly captures(address_is_null) %3, ptr noundef readonly captures(address_is_null) %4, ptr noundef readonly captures(address_is_null) %5, i32 noundef %6) unnamed_addr #10 {
  %8 = sext i32 %6 to i64
  %9 = tail call noalias ptr @calloc(i64 noundef %8, i64 noundef 8) #16
  %10 = tail call noalias ptr @calloc(i64 noundef %8, i64 noundef 8) #16
  %11 = tail call noalias ptr @calloc(i64 noundef %8, i64 noundef 8) #16
  %12 = icmp eq ptr %4, null
  %13 = icmp eq ptr %5, null
  %or.cond.i = or i1 %12, %13
  %14 = icmp eq ptr %9, null
  %or.cond3.i = or i1 %or.cond.i, %14
  %15 = icmp slt i32 %6, 1
  %or.cond5.i = or i1 %15, %or.cond3.i
  br i1 %or.cond5.i, label %arkode_butcher_vv.exit, label %.preheader.preheader.i

.preheader.preheader.i:                           ; preds = %7
  %wide.trip.count.i = zext nneg i32 %6 to i64
  br label %.preheader.i

.preheader.i:                                     ; preds = %.preheader.i, %.preheader.preheader.i
  %indvars.iv.i = phi i64 [ 0, %.preheader.preheader.i ], [ %indvars.iv.next.i, %.preheader.i ]
  %16 = getelementptr inbounds nuw double, ptr %4, i64 %indvars.iv.i
  %17 = load double, ptr %16, align 8, !tbaa !18
  %18 = getelementptr inbounds nuw double, ptr %5, i64 %indvars.iv.i
  %19 = load double, ptr %18, align 8, !tbaa !18
  %20 = fmul double %17, %19
  %21 = getelementptr inbounds nuw double, ptr %9, i64 %indvars.iv.i
  store double %20, ptr %21, align 8, !tbaa !18
  %indvars.iv.next.i = add nuw nsw i64 %indvars.iv.i, 1
  %exitcond.not.i = icmp eq i64 %indvars.iv.next.i, %wide.trip.count.i
  br i1 %exitcond.not.i, label %22, label %.preheader.i

arkode_butcher_vv.exit:                           ; preds = %7
  tail call void @free(ptr noundef %9) #17
  tail call void @free(ptr noundef %10) #17
  tail call void @free(ptr noundef %11) #17
  br label %arkode_butcher_dot.exit

22:                                               ; preds = %.preheader.i
  %23 = icmp eq ptr %3, null
  %24 = icmp eq ptr %10, null
  %or.cond3.i42 = or i1 %23, %24
  br i1 %or.cond3.i42, label %arkode_butcher_mv.exit, label %.preheader.us.i

.preheader.us.i:                                  ; preds = %22, %._crit_edge.us.i
  %indvars.iv40.i = phi i64 [ %indvars.iv.next41.i, %._crit_edge.us.i ], [ 0, %22 ]
  %25 = getelementptr inbounds nuw ptr, ptr %3, i64 %indvars.iv40.i
  %26 = load ptr, ptr %25, align 8, !tbaa !12
  %27 = getelementptr inbounds nuw double, ptr %10, i64 %indvars.iv40.i
  %.promoted.us.i = load double, ptr %27, align 8, !tbaa !18
  br label %28

28:                                               ; preds = %28, %.preheader.us.i
  %indvars.iv.i44 = phi i64 [ 0, %.preheader.us.i ], [ %indvars.iv.next.i45, %28 ]
  %29 = phi double [ %.promoted.us.i, %.preheader.us.i ], [ %34, %28 ]
  %30 = getelementptr inbounds nuw double, ptr %26, i64 %indvars.iv.i44
  %31 = load double, ptr %30, align 8, !tbaa !18
  %32 = getelementptr inbounds nuw double, ptr %9, i64 %indvars.iv.i44
  %33 = load double, ptr %32, align 8, !tbaa !18
  %34 = tail call double @llvm.fmuladd.f64(double %31, double %33, double %29)
  %indvars.iv.next.i45 = add nuw nsw i64 %indvars.iv.i44, 1
  %exitcond.not.i46 = icmp eq i64 %indvars.iv.next.i45, %wide.trip.count.i
  br i1 %exitcond.not.i46, label %._crit_edge.us.i, label %28

._crit_edge.us.i:                                 ; preds = %28
  store double %34, ptr %27, align 8, !tbaa !18
  %indvars.iv.next41.i = add nuw nsw i64 %indvars.iv40.i, 1
  %exitcond44.not.i = icmp eq i64 %indvars.iv.next41.i, %wide.trip.count.i
  br i1 %exitcond44.not.i, label %35, label %.preheader.us.i

arkode_butcher_mv.exit:                           ; preds = %22
  tail call void @free(ptr noundef nonnull %9) #17
  tail call void @free(ptr noundef %10) #17
  tail call void @free(ptr noundef %11) #17
  br label %arkode_butcher_dot.exit

35:                                               ; preds = %._crit_edge.us.i
  %36 = icmp eq ptr %1, null
  %37 = icmp eq ptr %2, null
  %or.cond.i47 = or i1 %36, %37
  br i1 %or.cond.i47, label %arkode_butcher_vv.exit57, label %.preheader.i52

.preheader.i52:                                   ; preds = %35, %.preheader.i52
  %indvars.iv.i53 = phi i64 [ %indvars.iv.next.i54, %.preheader.i52 ], [ 0, %35 ]
  %38 = getelementptr inbounds nuw double, ptr %1, i64 %indvars.iv.i53
  %39 = load double, ptr %38, align 8, !tbaa !18
  %40 = getelementptr inbounds nuw double, ptr %2, i64 %indvars.iv.i53
  %41 = load double, ptr %40, align 8, !tbaa !18
  %42 = fmul double %39, %41
  %43 = getelementptr inbounds nuw double, ptr %9, i64 %indvars.iv.i53
  store double %42, ptr %43, align 8, !tbaa !18
  %indvars.iv.next.i54 = add nuw nsw i64 %indvars.iv.i53, 1
  %exitcond.not.i55 = icmp eq i64 %indvars.iv.next.i54, %wide.trip.count.i
  br i1 %exitcond.not.i55, label %44, label %.preheader.i52

arkode_butcher_vv.exit57:                         ; preds = %35
  tail call void @free(ptr noundef nonnull %9) #17
  tail call void @free(ptr noundef nonnull %10) #17
  tail call void @free(ptr noundef %11) #17
  br label %arkode_butcher_dot.exit

44:                                               ; preds = %.preheader.i52
  %45 = icmp eq ptr %0, null
  %46 = icmp eq ptr %11, null
  %or.cond3.i59 = or i1 %45, %46
  br i1 %or.cond3.i59, label %arkode_butcher_vv.exit68, label %.preheader.i63

.preheader.i63:                                   ; preds = %44, %.preheader.i63
  %indvars.iv.i64 = phi i64 [ %indvars.iv.next.i65, %.preheader.i63 ], [ 0, %44 ]
  %47 = getelementptr inbounds nuw double, ptr %0, i64 %indvars.iv.i64
  %48 = load double, ptr %47, align 8, !tbaa !18
  %49 = getelementptr inbounds nuw double, ptr %9, i64 %indvars.iv.i64
  %50 = load double, ptr %49, align 8, !tbaa !18
  %51 = fmul double %48, %50
  %52 = getelementptr inbounds nuw double, ptr %11, i64 %indvars.iv.i64
  store double %51, ptr %52, align 8, !tbaa !18
  %indvars.iv.next.i65 = add nuw nsw i64 %indvars.iv.i64, 1
  %exitcond.not.i66 = icmp eq i64 %indvars.iv.next.i65, %wide.trip.count.i
  br i1 %exitcond.not.i66, label %.preheader, label %.preheader.i63

arkode_butcher_vv.exit68:                         ; preds = %44
  tail call void @free(ptr noundef nonnull %9) #17
  tail call void @free(ptr noundef %10) #17
  tail call void @free(ptr noundef %11) #17
  br label %arkode_butcher_dot.exit

.preheader:                                       ; preds = %.preheader.i63, %.preheader
  %indvars.iv.i72 = phi i64 [ %indvars.iv.next.i73, %.preheader ], [ 0, %.preheader.i63 ]
  %53 = phi double [ %58, %.preheader ], [ 0.000000e+00, %.preheader.i63 ]
  %54 = getelementptr inbounds nuw double, ptr %10, i64 %indvars.iv.i72
  %55 = load double, ptr %54, align 8, !tbaa !18
  %56 = getelementptr inbounds nuw double, ptr %11, i64 %indvars.iv.i72
  %57 = load double, ptr %56, align 8, !tbaa !18
  %58 = tail call double @llvm.fmuladd.f64(double %55, double %57, double %53)
  %indvars.iv.next.i73 = add nuw nsw i64 %indvars.iv.i72, 1
  %exitcond.not.i74 = icmp eq i64 %indvars.iv.next.i73, %wide.trip.count.i
  br i1 %exitcond.not.i74, label %59, label %.preheader

59:                                               ; preds = %.preheader
  tail call void @free(ptr noundef %9) #17
  tail call void @free(ptr noundef nonnull %10) #17
  tail call void @free(ptr noundef nonnull %11) #17
  %60 = fadd double %58, 0xBFAC71C71C71C71C
  %61 = tail call double @llvm.fabs.f64(double %60)
  %62 = fcmp ule double %61, 0x3E50000000000000
  %63 = zext i1 %62 to i32
  br label %arkode_butcher_dot.exit

arkode_butcher_dot.exit:                          ; preds = %59, %arkode_butcher_vv.exit68, %arkode_butcher_vv.exit57, %arkode_butcher_mv.exit, %arkode_butcher_vv.exit
  %.0 = phi i32 [ 0, %arkode_butcher_vv.exit ], [ 0, %arkode_butcher_mv.exit ], [ 0, %arkode_butcher_vv.exit57 ], [ 0, %arkode_butcher_vv.exit68 ], [ %63, %59 ]
  ret i32 %.0
}